; ModuleID = '42/1505.c'
source_filename = "42/1505.c"
target datalayout = "e-m:e-p270:32:32-p271:32:32-p272:64:64-i64:64-f80:128-n8:16:32:64-S128"
target triple = "x86_64-pc-linux-gnu"

%struct.number = type { i32, i32 }

@.str = private unnamed_addr constant [3 x i8] c"%d\00", align 1
@.str.1 = private unnamed_addr constant [4 x i8] c"%d \00", align 1

; Function Attrs: noinline nounwind uwtable
define dso_local i32 @main() #0 {
  %1 = alloca i32, align 4
  %2 = alloca [100000 x %struct.number], align 16
  %3 = alloca i32, align 4
  %4 = alloca i32, align 4
  %5 = alloca i32, align 4
  %6 = alloca i32, align 4
  %7 = alloca i32, align 4
  store i32 0, i32* %1, align 4
  store i32 0, i32* %7, align 4
  %8 = call i32 (i8*, ...) @__isoc99_scanf(i8* getelementptr inbounds ([3 x i8], [3 x i8]* @.str, i64 0, i64 0), i32* %3)
  %9 = load i32, i32* %3, align 4
  store i32 %9, i32* %6, align 4
  store i32 0, i32* %4, align 4
  br label %10

10:                                               ; preds = %24, %0
  %11 = load i32, i32* %4, align 4
  %12 = load i32, i32* %3, align 4
  %13 = icmp slt i32 %11, %12
  br i1 %13, label %14, label %27

14:                                               ; preds = %10
  %15 = load i32, i32* %4, align 4
  %16 = sext i32 %15 to i64
  %17 = getelementptr inbounds [100000 x %struct.number], [100000 x %struct.number]* %2, i64 0, i64 %16
  %18 = getelementptr inbounds %struct.number, %struct.number* %17, i32 0, i32 0
  %19 = call i32 (i8*, ...) @__isoc99_scanf(i8* getelementptr inbounds ([3 x i8], [3 x i8]* @.str, i64 0, i64 0), i32* %18)
  %20 = load i32, i32* %4, align 4
  %21 = sext i32 %20 to i64
  %22 = getelementptr inbounds [100000 x %struct.number], [100000 x %struct.number]* %2, i64 0, i64 %21
  %23 = getelementptr inbounds %struct.number, %struct.number* %22, i32 0, i32 1
  store i32 1, i32* %23, align 4
  br label %24

24:                                               ; preds = %14
  %25 = load i32, i32* %4, align 4
  %26 = add nsw i32 %25, 1
  store i32 %26, i32* %4, align 4
  br label %10

27:                                               ; preds = %10
  %28 = call i32 (i8*, ...) @__isoc99_scanf(i8* getelementptr inbounds ([3 x i8], [3 x i8]* @.str, i64 0, i64 0), i32* %5)
  store i32 0, i32* %4, align 4
  br label %29

29:                                               ; preds = %49, %27
  %30 = load i32, i32* %4, align 4
  %31 = load i32, i32* %3, align 4
  %32 = icmp slt i32 %30, %31
  br i1 %32, label %33, label %52

33:                                               ; preds = %29
  %34 = load i32, i32* %4, align 4
  %35 = sext i32 %34 to i64
  %36 = getelementptr inbounds [100000 x %struct.number], [100000 x %struct.number]* %2, i64 0, i64 %35
  %37 = getelementptr inbounds %struct.number, %struct.number* %36, i32 0, i32 0
  %38 = load i32, i32* %37, align 8
  %39 = load i32, i32* %5, align 4
  %40 = icmp eq i32 %38, %39
  br i1 %40, label %41, label %48

41:                                               ; preds = %33
  %42 = load i32, i32* %4, align 4
  %43 = sext i32 %42 to i64
  %44 = getelementptr inbounds [100000 x %struct.number], [100000 x %struct.number]* %2, i64 0, i64 %43
  %45 = getelementptr inbounds %struct.number, %struct.number* %44, i32 0, i32 1
  store i32 0, i32* %45, align 4
  %46 = load i32, i32* %6, align 4
  %47 = add nsw i32 %46, -1
  store i32 %47, i32* %6, align 4
  br label %48

48:                                               ; preds = %41, %33
  br label %49

49:                                               ; preds = %48
  %50 = load i32, i32* %4, align 4
  %51 = add nsw i32 %50, 1
  store i32 %51, i32* %4, align 4
  br label %29

52:                                               ; preds = %29
  store i32 0, i32* %4, align 4
  br label %53

53:                                               ; preds = %99, %52
  %54 = load i32, i32* %4, align 4
  %55 = load i32, i32* %3, align 4
  %56 = icmp slt i32 %54, %55
  br i1 %56, label %57, label %102

57:                                               ; preds = %53
  %58 = load i32, i32* %4, align 4
  %59 = sext i32 %58 to i64
  %60 = getelementptr inbounds [100000 x %struct.number], [100000 x %struct.number]* %2, i64 0, i64 %59
  %61 = getelementptr inbounds %struct.number, %struct.number* %60, i32 0, i32 1
  %62 = load i32, i32* %61, align 4
  %63 = icmp ne i32 %62, 0
  br i1 %63, label %64, label %78

64:                                               ; preds = %57
  %65 = load i32, i32* %7, align 4
  %66 = load i32, i32* %6, align 4
  %67 = sub nsw i32 %66, 1
  %68 = icmp ne i32 %65, %67
  br i1 %68, label %69, label %78

69:                                               ; preds = %64
  %70 = load i32, i32* %4, align 4
  %71 = sext i32 %70 to i64
  %72 = getelementptr inbounds [100000 x %struct.number], [100000 x %struct.number]* %2, i64 0, i64 %71
  %73 = getelementptr inbounds %struct.number, %struct.number* %72, i32 0, i32 0
  %74 = load i32, i32* %73, align 8
  %75 = call i32 (i8*, ...) @printf(i8* getelementptr inbounds ([4 x i8], [4 x i8]* @.str.1, i64 0, i64 0), i32 %74)
  %76 = load i32, i32* %7, align 4
  %77 = add nsw i32 %76, 1
  store i32 %77, i32* %7, align 4
  br label %98

78:                                               ; preds = %64, %57
  %79 = load i32, i32* %4, align 4
  %80 = sext i32 %79 to i64
  %81 = getelementptr inbounds [100000 x %struct.number], [100000 x %struct.number]* %2, i64 0, i64 %80
  %82 = getelementptr inbounds %struct.number, %struct.number* %81, i32 0, i32 1
  %83 = load i32, i32* %82, align 4
  %84 = icmp ne i32 %83, 0
  br i1 %84, label %85, label %97

85:                                               ; preds = %78
  %86 = load i32, i32* %7, align 4
  %87 = load i32, i32* %6, align 4
  %88 = sub nsw i32 %87, 1
  %89 = icmp eq i32 %86, %88
  br i1 %89, label %90, label %97

90:                                               ; preds = %85
  %91 = load i32, i32* %4, align 4
  %92 = sext i32 %91 to i64
  %93 = getelementptr inbounds [100000 x %struct.number], [100000 x %struct.number]* %2, i64 0, i64 %92
  %94 = getelementptr inbounds %struct.number, %struct.number* %93, i32 0, i32 0
  %95 = load i32, i32* %94, align 8
  %96 = call i32 (i8*, ...) @printf(i8* getelementptr inbounds ([3 x i8], [3 x i8]* @.str, i64 0, i64 0), i32 %95)
  br label %97

97:                                               ; preds = %90, %85, %78
  br label %98

98:                                               ; preds = %97, %69
  br label %99

99:                                               ; preds = %98
  %100 = load i32, i32* %4, align 4
  %101 = add nsw i32 %100, 1
  store i32 %101, i32* %4, align 4
  br label %53

102:                                              ; preds = %53
  ret i32 0
}

declare dso_local i32 @__isoc99_scanf(i8*, ...) #1

declare dso_local i32 @printf(i8*, ...) #1


!llvm.module.flags = !{!0}
!llvm.ident = !{!1}

!0 = !{i32 1, !"wchar_size", i32 4}
!1 = !{!"clang version 10.0.0-4ubuntu1 "}
